target datalayout = "e-m:e-p270:32:32-p271:32:32-p272:64:64-i64:64-i128:128-f80:128-n8:16:32:64-S128"
target triple = "x86_64-pc-linux-gnu"

%struct.timespec = type { i64, i64 }

; Function Attrs: mustprogress uwtable
define { i64, i64 } @_ZNK4base9TimeDelta10ToTimeSpecEv(ptr noundef nonnull align 8 dereferenceable(8) %0) #0 align 2 {
  %2 = alloca %struct.timespec, align 8
  %3 = alloca ptr, align 8
  %4 = alloca i64, align 8
  %5 = alloca i64, align 8
  store ptr %0, ptr %3, align 8, !tbaa !3
  %6 = load ptr, ptr %3, align 8
  call void @llvm.lifetime.start.p0(i64 8, ptr %4) #11
  %7 = call noundef i64 @_ZNK4base9TimeDelta14InMicrosecondsEv(ptr noundef nonnull align 8 dereferenceable(8) %6)
  store i64 %7, ptr %4, align 8, !tbaa !8
  call void @llvm.lifetime.start.p0(i64 8, ptr %5) #11
  store i64 0, ptr %5, align 8, !tbaa !8
  %8 = load i64, ptr %4, align 8, !tbaa !8
  %9 = icmp sge i64 %8, 1000000
  br i1 %9, label %10, label %16

10:                                               ; preds = %1
  %11 = call noundef i64 @_ZNK4base9TimeDelta9InSecondsEv(ptr noundef nonnull align 8 dereferenceable(8) %6)
  store i64 %11, ptr %5, align 8, !tbaa !8
  %12 = load i64, ptr %5, align 8, !tbaa !8
  %13 = mul nsw i64 %12, 1000000
  %14 = load i64, ptr %4, align 8, !tbaa !8
  %15 = sub nsw i64 %14, %13
  store i64 %15, ptr %4, align 8, !tbaa !8
  br label %16

16:                                               ; preds = %10, %1
  %17 = getelementptr inbounds nuw %struct.timespec, ptr %2, i32 0, i32 0
  %18 = load i64, ptr %5, align 8, !tbaa !8
  store i64 %18, ptr %17, align 8, !tbaa !10
  %19 = getelementptr inbounds nuw %struct.timespec, ptr %2, i32 0, i32 1
  %20 = load i64, ptr %4, align 8, !tbaa !8
  %21 = mul nsw i64 %20, 1000
  store i64 %21, ptr %19, align 8, !tbaa !12
  call void @llvm.lifetime.end.p0(i64 8, ptr %5) #11
  call void @llvm.lifetime.end.p0(i64 8, ptr %4) #11
  %22 = load { i64, i64 }, ptr %2, align 8
  ret { i64, i64 } %22
}