; Function Attrs: mustprogress uwtable
define { i64, i64 } @_ZNK4base9TimeDelta10ToTimeSpecEv(ptr noundef nonnull align 8 dereferenceable(8) %0) local_unnamed_addr #0 align 2 {
  %2 = tail call noundef i64 @_ZNK4base9TimeDelta14InMicrosecondsEv(ptr noundef nonnull align 8 dereferenceable(8) %0)
  %3 = icmp sgt i64 %2, 999999
  br i1 %3, label %4, label %7

4:                                                ; preds = %1
  %5 = tail call noundef i64 @_ZNK4base9TimeDelta9InSecondsEv(ptr noundef nonnull align 8 dereferenceable(8) %0)
  %.neg = mul i64 %5, -1000000
  %6 = add i64 %.neg, %2
  br label %7

7:                                                ; preds = %4, %1
  %.05 = phi i64 [ %6, %4 ], [ %2, %1 ]
  %.0 = phi i64 [ %5, %4 ], [ 0, %1 ]
  %8 = mul nsw i64 %.05, 1000
  %.fca.0.insert = insertvalue { i64, i64 } poison, i64 %.0, 0
  %.fca.1.insert = insertvalue { i64, i64 } %.fca.0.insert, i64 %8, 1
  ret { i64, i64 } %.fca.1.insert
}